target datalayout = "e-m:e-p270:32:32-p271:32:32-p272:64:64-i64:64-i128:128-f80:128-n8:16:32:64-S128"
target triple = "x86_64-pc-linux-gnu"

%struct._object = type { %union.anon, ptr }
%union.anon = type { i64 }
%struct.anon = type { i32, i32 }
%struct.HeapCTypeSetattrObject = type { %struct._object, i64 }

@.str.93 = private unnamed_addr constant [6 x i8] c"value\00", align 1

; Function Attrs: alwaysinline nounwind uwtable
define internal i32 @_Py_IsImmortal(ptr noundef %0) #3 {
  %2 = alloca ptr, align 8
  store ptr %0, ptr %2, align 8, !tbaa !3
  %3 = load ptr, ptr %2, align 8, !tbaa !3
  %4 = getelementptr inbounds nuw %struct._object, ptr %3, i32 0, i32 0
  %5 = getelementptr inbounds nuw %struct.anon, ptr %4, i32 0, i32 0
  %6 = load i32, ptr %5, align 8, !tbaa !12
  %7 = icmp slt i32 %6, 0
  %8 = zext i1 %7 to i32
  ret i32 %8
}

; Function Attrs: alwaysinline nounwind uwtable
define internal void @Py_DECREF(ptr noundef %0) #3 {
  %2 = alloca ptr, align 8
  store ptr %0, ptr %2, align 8, !tbaa !3
  %3 = load ptr, ptr %2, align 8, !tbaa !3
  %4 = call i32 @_Py_IsImmortal(ptr noundef %3)
  %5 = icmp ne i32 %4, 0
  br i1 %5, label %6, label %7

6:                                                ; preds = %1
  br label %16

7:                                                ; preds = %1
  %8 = load ptr, ptr %2, align 8, !tbaa !3
  %9 = getelementptr inbounds nuw %struct._object, ptr %8, i32 0, i32 0
  %10 = getelementptr inbounds nuw %struct.anon, ptr %9, i32 0, i32 0
  %11 = load i32, ptr %10, align 8, !tbaa !12
  %12 = add i32 %11, -1
  store i32 %12, ptr %10, align 8, !tbaa !12
  %13 = icmp eq i32 %12, 0
  br i1 %13, label %14, label %16

14:                                               ; preds = %7
  %15 = load ptr, ptr %2, align 8, !tbaa !3
  call void @_Py_Dealloc(ptr noundef %15)
  br label %16

16:                                               ; preds = %6, %14, %7
  ret void
}

; Function Attrs: nounwind uwtable
define internal i32 @heapctypesetattr_setattro(ptr noundef %0, ptr noundef %1, ptr noundef %2) #0 {
  %4 = alloca i32, align 4
  %5 = alloca ptr, align 8
  %6 = alloca ptr, align 8
  %7 = alloca ptr, align 8
  %8 = alloca ptr, align 8
  %9 = alloca i32, align 4
  %10 = alloca i32, align 4
  %11 = alloca ptr, align 8
  %12 = alloca i64, align 8
  store ptr %0, ptr %5, align 8, !tbaa !20
  store ptr %1, ptr %6, align 8, !tbaa !3
  store ptr %2, ptr %7, align 8, !tbaa !3
  call void @llvm.lifetime.start.p0(i64 8, ptr %8) #9
  %13 = call ptr @PyUnicode_FromString(ptr noundef @.str.93)
  store ptr %13, ptr %8, align 8, !tbaa !3
  %14 = load ptr, ptr %8, align 8, !tbaa !3
  %15 = icmp eq ptr %14, null
  br i1 %15, label %16, label %17

16:                                               ; preds = %3
  store i32 -1, ptr %4, align 4
  store i32 1, ptr %9, align 4
  br label %62

17:                                               ; preds = %3
  call void @llvm.lifetime.start.p0(i64 4, ptr %10) #9
  %18 = load ptr, ptr %8, align 8, !tbaa !3
  %19 = load ptr, ptr %6, align 8, !tbaa !3
  %20 = call i32 @PyObject_RichCompareBool(ptr noundef %18, ptr noundef %19, i32 noundef 2)
  store i32 %20, ptr %10, align 4, !tbaa !10
  %21 = load ptr, ptr %8, align 8, !tbaa !3
  call void @Py_DECREF(ptr noundef %21)
  %22 = load i32, ptr %10, align 4, !tbaa !10
  %23 = icmp slt i32 %22, 0
  br i1 %23, label %24, label %25

24:                                               ; preds = %17
  store i32 -1, ptr %4, align 4
  store i32 1, ptr %9, align 4
  br label %61

25:                                               ; preds = %17
  %26 = load i32, ptr %10, align 4, !tbaa !10
  %27 = icmp ne i32 %26, 0
  br i1 %27, label %33, label %28

28:                                               ; preds = %25
  %29 = load ptr, ptr %5, align 8, !tbaa !20
  %30 = load ptr, ptr %6, align 8, !tbaa !3
  %31 = load ptr, ptr %7, align 8, !tbaa !3
  %32 = call i32 @PyObject_GenericSetAttr(ptr noundef %29, ptr noundef %30, ptr noundef %31)
  store i32 %32, ptr %4, align 4
  store i32 1, ptr %9, align 4
  br label %61

33:                                               ; preds = %25
  %34 = load ptr, ptr %7, align 8, !tbaa !3
  %35 = icmp eq ptr %34, null
  br i1 %35, label %36, label %39

36:                                               ; preds = %33
  %37 = load ptr, ptr %5, align 8, !tbaa !20
  %38 = getelementptr inbounds nuw %struct.HeapCTypeSetattrObject, ptr %37, i32 0, i32 1
  store i64 0, ptr %38, align 8, !tbaa !56
  store i32 0, ptr %4, align 4
  store i32 1, ptr %9, align 4
  br label %61

39:                                               ; preds = %33
  call void @llvm.lifetime.start.p0(i64 8, ptr %11) #9
  %40 = load ptr, ptr %7, align 8, !tbaa !3
  %41 = call ptr @PyNumber_Long(ptr noundef %40)
  store ptr %41, ptr %11, align 8, !tbaa !3
  %42 = load ptr, ptr %11, align 8, !tbaa !3
  %43 = icmp eq ptr %42, null
  br i1 %43, label %44, label %45

44:                                               ; preds = %39
  store i32 -1, ptr %4, align 4
  store i32 1, ptr %9, align 4
  br label %60

45:                                               ; preds = %39
  call void @llvm.lifetime.start.p0(i64 8, ptr %12) #9
  %46 = load ptr, ptr %11, align 8, !tbaa !3
  %47 = call i64 @PyLong_AsLong(ptr noundef %46)
  store i64 %47, ptr %12, align 8, !tbaa !53
  %48 = load ptr, ptr %11, align 8, !tbaa !3
  call void @Py_DECREF(ptr noundef %48)
  %49 = load i64, ptr %12, align 8, !tbaa !53
  %50 = icmp eq i64 %49, -1
  br i1 %50, label %51, label %55

51:                                               ; preds = %45
  %52 = call ptr @PyErr_Occurred()
  %53 = icmp ne ptr %52, null
  br i1 %53, label %54, label %55

54:                                               ; preds = %51
  store i32 -1, ptr %4, align 4
  store i32 1, ptr %9, align 4
  br label %59

55:                                               ; preds = %51, %45
  %56 = load i64, ptr %12, align 8, !tbaa !53
  %57 = load ptr, ptr %5, align 8, !tbaa !20
  %58 = getelementptr inbounds nuw %struct.HeapCTypeSetattrObject, ptr %57, i32 0, i32 1
  store i64 %56, ptr %58, align 8, !tbaa !56
  store i32 0, ptr %4, align 4
  store i32 1, ptr %9, align 4
  br label %59

59:                                               ; preds = %55, %54
  call void @llvm.lifetime.end.p0(i64 8, ptr %12) #9
  br label %60

60:                                               ; preds = %59, %44
  call void @llvm.lifetime.end.p0(i64 8, ptr %11) #9
  br label %61

61:                                               ; preds = %60, %36, %28, %24
  call void @llvm.lifetime.end.p0(i64 4, ptr %10) #9
  br label %62

62:                                               ; preds = %61, %16
  call void @llvm.lifetime.end.p0(i64 8, ptr %8) #9
  %63 = load i32, ptr %4, align 4
  ret i32 %63
}