; Function Attrs: nounwind uwtable
define internal i32 @heapctypesetattr_setattro(ptr noundef %0, ptr noundef %1, ptr noundef %2) #0 {
  %4 = tail call ptr @PyUnicode_FromString(ptr noundef nonnull @.str.93) #8
  %5 = icmp eq ptr %4, null
  br i1 %5, label %36, label %6

6:                                                ; preds = %3
  %7 = tail call i32 @PyObject_RichCompareBool(ptr noundef nonnull %4, ptr noundef %1, i32 noundef 2) #8
  %8 = load i32, ptr %4, align 8, !tbaa !8
  %.not.i23 = icmp sgt i32 %8, -1
  br i1 %.not.i23, label %9, label %Py_DECREF.exit24

9:                                                ; preds = %6
  %10 = add nsw i32 %8, -1
  store i32 %10, ptr %4, align 8, !tbaa !8
  %11 = icmp eq i32 %10, 0
  br i1 %11, label %12, label %Py_DECREF.exit24

12:                                               ; preds = %9
  tail call void @_Py_Dealloc(ptr noundef nonnull %4) #8
  br label %Py_DECREF.exit24

Py_DECREF.exit24:                                 ; preds = %6, %9, %12
  %13 = icmp slt i32 %7, 0
  br i1 %13, label %36, label %14

14:                                               ; preds = %Py_DECREF.exit24
  %.not = icmp eq i32 %7, 0
  br i1 %.not, label %15, label %17

15:                                               ; preds = %14
  %16 = tail call i32 @PyObject_GenericSetAttr(ptr noundef %0, ptr noundef %1, ptr noundef %2) #8
  br label %36

17:                                               ; preds = %14
  %18 = icmp eq ptr %2, null
  br i1 %18, label %19, label %21

19:                                               ; preds = %17
  %20 = getelementptr inbounds nuw i8, ptr %0, i64 16
  store i64 0, ptr %20, align 8, !tbaa !49
  br label %36

21:                                               ; preds = %17
  %22 = tail call ptr @PyNumber_Long(ptr noundef nonnull %2) #8
  %23 = icmp eq ptr %22, null
  br i1 %23, label %36, label %24

24:                                               ; preds = %21
  %25 = tail call i64 @PyLong_AsLong(ptr noundef nonnull %22) #8
  %26 = load i32, ptr %22, align 8, !tbaa !8
  %.not.i = icmp sgt i32 %26, -1
  br i1 %.not.i, label %27, label %Py_DECREF.exit

27:                                               ; preds = %24
  %28 = add nsw i32 %26, -1
  store i32 %28, ptr %22, align 8, !tbaa !8
  %29 = icmp eq i32 %28, 0
  br i1 %29, label %30, label %Py_DECREF.exit

30:                                               ; preds = %27
  tail call void @_Py_Dealloc(ptr noundef nonnull %22) #8
  br label %Py_DECREF.exit

Py_DECREF.exit:                                   ; preds = %24, %27, %30
  %31 = icmp eq i64 %25, -1
  br i1 %31, label %32, label %34

32:                                               ; preds = %Py_DECREF.exit
  %33 = tail call ptr @PyErr_Occurred() #8
  %.not22 = icmp eq ptr %33, null
  br i1 %.not22, label %34, label %36

34:                                               ; preds = %32, %Py_DECREF.exit
  %35 = getelementptr inbounds nuw i8, ptr %0, i64 16
  store i64 %25, ptr %35, align 8, !tbaa !49
  br label %36

36:                                               ; preds = %15, %19, %Py_DECREF.exit24, %34, %32, %21, %3
  %.0 = phi i32 [ -1, %3 ], [ 0, %19 ], [ %16, %15 ], [ -1, %Py_DECREF.exit24 ], [ -1, %21 ], [ 0, %34 ], [ -1, %32 ]
  ret i32 %.0
}